; Function Attrs: mustprogress uwtable
define dso_local noundef range(i32 0, 2) i32 @stbi_is_16_bit_from_file(ptr noundef %0) local_unnamed_addr #5 {
  %2 = alloca %struct.stbi__context, align 8
  call void @llvm.lifetime.start.p0(i64 224, ptr nonnull %2) #40
  %3 = tail call i64 @ftell(ptr noundef %0)
  %4 = getelementptr inbounds nuw i8, ptr %2, i64 16
  call void @llvm.memcpy.p0.p0.i64(ptr noundef nonnull align 8 dereferenceable(24) %4, ptr noundef nonnull align 8 dereferenceable(24) @_ZL21stbi__stdio_callbacks, i64 24, i1 false), !tbaa.struct !11
  %5 = getelementptr inbounds nuw i8, ptr %2, i64 40
  store ptr %0, ptr %5, align 8, !tbaa !13
  %6 = getelementptr inbounds nuw i8, ptr %2, i64 52
  store i32 128, ptr %6, align 4, !tbaa !16
  %7 = getelementptr inbounds nuw i8, ptr %2, i64 48
  store i32 1, ptr %7, align 8, !tbaa !17
  %8 = getelementptr inbounds nuw i8, ptr %2, i64 184
  store i32 0, ptr %8, align 8, !tbaa !18
  %9 = getelementptr inbounds nuw i8, ptr %2, i64 56
  %10 = getelementptr inbounds nuw i8, ptr %2, i64 208
  store ptr %9, ptr %10, align 8, !tbaa !19
  %11 = getelementptr inbounds nuw i8, ptr %2, i64 192
  store ptr %9, ptr %11, align 8, !tbaa !20
  %12 = load ptr, ptr %4, align 8, !tbaa !21
  %13 = call noundef i32 %12(ptr noundef %0, ptr noundef nonnull %9, i32 noundef 128)
  %14 = load ptr, ptr %11, align 8, !tbaa !20
  %15 = load ptr, ptr %10, align 8, !tbaa !19
  %16 = ptrtoint ptr %14 to i64
  %17 = ptrtoint ptr %15 to i64
  %18 = sub i64 %16, %17
  %19 = trunc i64 %18 to i32
  %20 = load i32, ptr %8, align 8, !tbaa !18
  %21 = add nsw i32 %20, %19
  store i32 %21, ptr %8, align 8, !tbaa !18
  %22 = icmp eq i32 %13, 0
  br i1 %22, label %23, label %25

23:                                               ; preds = %1
  store i32 0, ptr %7, align 8, !tbaa !17
  %24 = getelementptr inbounds nuw i8, ptr %2, i64 57
  store i8 0, ptr %9, align 8, !tbaa !22
  br label %_ZL16stbi__start_fileP13stbi__contextP8_IO_FILE.exit

25:                                               ; preds = %1
  %26 = sext i32 %13 to i64
  %27 = getelementptr inbounds i8, ptr %9, i64 %26
  br label %_ZL16stbi__start_fileP13stbi__contextP8_IO_FILE.exit

_ZL16stbi__start_fileP13stbi__contextP8_IO_FILE.exit: ; preds = %23, %25
  %.sink.i.i.i = phi ptr [ %24, %23 ], [ %27, %25 ]
  store ptr %9, ptr %11, align 8, !tbaa !20
  %28 = getelementptr inbounds nuw i8, ptr %2, i64 200
  store ptr %.sink.i.i.i, ptr %28, align 8, !tbaa !23
  %29 = getelementptr inbounds nuw i8, ptr %2, i64 216
  store ptr %.sink.i.i.i, ptr %29, align 8, !tbaa !24
  %30 = call fastcc noundef i32 @_ZL16stbi__is_16_mainP13stbi__context(ptr noundef %2)
  %31 = call i32 @fseek(ptr noundef %0, i64 noundef %3, i32 noundef 0)
  call void @llvm.lifetime.end.p0(i64 224, ptr nonnull %2) #40
  ret i32 %30
}